target datalayout = "e-m:e-p270:32:32-p271:32:32-p272:64:64-i64:64-i128:128-f80:128-n8:16:32:64-S128"
target triple = "x86_64-pc-linux-gnu"

%struct.Resampler = type { ptr, ptr, ptr, ptr, ptr, ptr, ptr, ptr }
%struct.SwrContext = type { ptr, i32, ptr, i32, i32, i32, %struct.AVChannelLayout, %struct.AVChannelLayout, %struct.AVChannelLayout, i32, i32, i32, float, float, float, float, float, i32, ptr, i32, %struct.AVChannelLayout, %struct.AVChannelLayout, %struct.AVChannelLayout, i32, i32, %struct.DitherContext, i32, i32, i32, i32, double, i32, double, double, i32, float, float, float, float, float, i64, i32, i32, i32, %struct.AudioData, %struct.AudioData, %struct.AudioData, %struct.AudioData, %struct.AudioData, %struct.AudioData, %struct.AudioData, %struct.AudioData, i32, i32, i32, i32, i64, i64, i32, double, ptr, ptr, ptr, ptr, ptr, [64 x [64 x double]], [64 x [64 x float]], ptr, ptr, ptr, ptr, [64 x [64 x i32]], [64 x [65 x i8]], ptr, ptr, ptr, ptr, ptr }
%struct.AVChannelLayout = type { i32, i32, %union.anon, ptr }
%union.anon = type { i64 }
%struct.DitherContext = type { i32, i32, float, float, i32, float, float, i32, [20 x float], [64 x [40 x float]], %struct.AudioData, %struct.AudioData, i32 }
%struct.AudioData = type { [64 x ptr], ptr, i32, i32, i32, i32, i32 }

; Function Attrs: cold nounwind optsize uwtable
define void @swr_free(ptr noundef %0) #3 {
  %2 = alloca ptr, align 8
  %3 = alloca ptr, align 8
  store ptr %0, ptr %2, align 8, !tbaa !26
  call void @llvm.lifetime.start.p0(i64 8, ptr %3) #9
  %4 = load ptr, ptr %2, align 8, !tbaa !26
  %5 = load ptr, ptr %4, align 8, !tbaa !4
  store ptr %5, ptr %3, align 8, !tbaa !4
  %6 = load ptr, ptr %3, align 8, !tbaa !4
  %7 = icmp ne ptr %6, null
  br i1 %7, label %8, label %29

8:                                                ; preds = %1
  %9 = load ptr, ptr %3, align 8, !tbaa !4
  call void @clear_context(ptr noundef %9)
  %10 = load ptr, ptr %3, align 8, !tbaa !4
  %11 = getelementptr inbounds nuw %struct.SwrContext, ptr %10, i32 0, i32 21
  call void @av_channel_layout_uninit(ptr noundef %11)
  %12 = load ptr, ptr %3, align 8, !tbaa !4
  %13 = getelementptr inbounds nuw %struct.SwrContext, ptr %12, i32 0, i32 22
  call void @av_channel_layout_uninit(ptr noundef %13)
  %14 = load ptr, ptr %3, align 8, !tbaa !4
  %15 = getelementptr inbounds nuw %struct.SwrContext, ptr %14, i32 0, i32 20
  call void @av_channel_layout_uninit(ptr noundef %15)
  %16 = load ptr, ptr %3, align 8, !tbaa !4
  %17 = getelementptr inbounds nuw %struct.SwrContext, ptr %16, i32 0, i32 64
  %18 = load ptr, ptr %17, align 8, !tbaa !35
  %19 = icmp ne ptr %18, null
  br i1 %19, label %20, label %28

20:                                               ; preds = %8
  %21 = load ptr, ptr %3, align 8, !tbaa !4
  %22 = getelementptr inbounds nuw %struct.SwrContext, ptr %21, i32 0, i32 64
  %23 = load ptr, ptr %22, align 8, !tbaa !35
  %24 = getelementptr inbounds nuw %struct.Resampler, ptr %23, i32 0, i32 1
  %25 = load ptr, ptr %24, align 8, !tbaa !36
  %26 = load ptr, ptr %3, align 8, !tbaa !4
  %27 = getelementptr inbounds nuw %struct.SwrContext, ptr %26, i32 0, i32 63
  call void %25(ptr noundef %27)
  br label %28

28:                                               ; preds = %20, %8
  br label %29

29:                                               ; preds = %28, %1
  %30 = load ptr, ptr %2, align 8, !tbaa !26
  call void @av_freep(ptr noundef %30)
  call void @llvm.lifetime.end.p0(i64 8, ptr %3) #9
  ret void
}