; Function Attrs: cold nounwind optsize uwtable
define void @swr_free(ptr noundef %0) local_unnamed_addr #4 {
  %2 = load ptr, ptr %0, align 8, !tbaa !23
  %.not = icmp eq ptr %2, null
  br i1 %.not, label %13, label %3

3:                                                ; preds = %1
  tail call fastcc void @clear_context(ptr noundef nonnull %2)
  %4 = getelementptr inbounds nuw i8, ptr %2, i64 192
  tail call void @av_channel_layout_uninit(ptr noundef nonnull %4) #12
  %5 = getelementptr inbounds nuw i8, ptr %2, i64 216
  tail call void @av_channel_layout_uninit(ptr noundef nonnull %5) #12
  %6 = getelementptr inbounds nuw i8, ptr %2, i64 168
  tail call void @av_channel_layout_uninit(ptr noundef nonnull %6) #12
  %7 = getelementptr inbounds nuw i8, ptr %2, i64 16224
  %8 = load ptr, ptr %7, align 8, !tbaa !27
  %.not11 = icmp eq ptr %8, null
  br i1 %.not11, label %13, label %9

9:                                                ; preds = %3
  %10 = getelementptr inbounds nuw i8, ptr %8, i64 8
  %11 = load ptr, ptr %10, align 8, !tbaa !28
  %12 = getelementptr inbounds nuw i8, ptr %2, i64 16216
  tail call void %11(ptr noundef nonnull %12) #12
  br label %13

13:                                               ; preds = %3, %9, %1
  tail call void @av_freep(ptr noundef nonnull %0) #12
  ret void
}